(dp0
I1537
NsI515
NsI516
NsI5
NsI6
NsI7
NsI520
NsI521
NsI10
NsI12
NsI525
NsI14
NsI1041
NsI1644
NsI1443
NsI1559
NsI1560
NsI1028
NsI1343
NsI1563
NsI540
NsI1029
NsI33
NsI35
NsI36
NsI38
NsI1575
NsI1576
NsI1331
NsI1579
NsI1583
NsI561
NsI50
NsI51
NsI1553
NsI566
NsI1079
NsI1593
NsI570
NsI1598
NsI1088
NsI581
NsI582
NsI1608
NsI1097
NsI587
NsI77
NsI78
NsI79
NsI592
NsI1106
NsI595
NsI1038
NsI1773
NsI1112
NsI602
NsI1435
NsI93
NsI1759
NsI96
NsI1296
NsI1122
NsI611
NsI1124
NsI103
NsI617
NsI108
NsI1469
NsI624
NsI1137
NsI1163
NsI1653
NsI1142
NsI1143
NsI120
NsI1145
NsI1146
NsI635
NsI638
NsI127
NsI128
NsI130
NsI1387
NsI645
NsI1158
NsI1729
NsI1161
NsI891
NsI1215
NsI143
NsI144
NsI1681
NsI1170
NsI1171
NsI149
NsI151
NsI1177
NsI1691
NsI1732
NsI669
NsI1698
NsI1307
NsI164
NsI1701
NsI1284
NsI1393
NsI1591
NsI682
NsI1341
NsI1196
NsI1710
NsI175
NsI176
NsI1713
NsI691
NsI1716
NsI182
NsI1207
NsI185
NsI187
NsI1212
NsI701
NsI702
NsI703
NsI799
NsI944
NsI708
NsI710
NsI199
NsI712
NsI1225
NsI714
NsI715
NsI1541
NsI205
NsI1743
NsI632
NsI725
NsI727
NsI728
NsI1753
NsI219
NsI1245
NsI735
NsI737
NsI227
NsI550
NsI742
NsI721
NsI1769
NsI1482
NsI237
NsI1491
NsI755
NsI244
NsI245
NsI247
NsI249
NsI762
NsI639
NsI766
NsI768
NsI257
NsI1282
NsI772
NsI778
NsI1239
NsI269
NsI1294
NsI783
NsI784
NsI1752
NsI1298
NsI1299
NsI1300
NsI283
NsI796
NsI947
NsI1310
NsI287
NsI936
NsI290
NsI1243
NsI805
NsI294
NsI1152
NsI1326
NsI1328
NsI817
NsI819
NsI820
NsI822
NsI1588
NsI314
NsI315
NsI828
NsI906
NsI831
NsI1344
NsI833
NsI323
NsI1545
NsI1352
NsI841
NsI331
NsI994
NsI1677
NsI1360
NsI338
NsI676
NsI340
NsI853
NsI642
NsI344
NsI859
NsI352
NsI1168
NsI354
NsI1529
NsI1382
NsI359
NsI361
NsI743
NsI1427
NsI365
NsI694
NsI368
NsI881
NsI370
NsI883
NsI1666
NsI916
NsI379
NsI382
NsI385
NsI1771
NsI1412
NsI1414
NsI393
NsI394
NsI907
NsI908
NsI1735
NsI1423
NsI401
NsI403
NsI404
NsI919
NsI409
NsI410
NsI411
NsI1434
NsI415
NsI923
NsI1445
NsI1446
NsI688
NsI942
NsI432
NsI1458
NsI435
NsI436
NsI1461
NsI1462
NsI1203
NsI1549
NsI445
NsI1013
NsI448
NsI1123
NsI455
NsI970
NsI1483
NsI973
NsI467
NsI1494
NsI471
NsI984
NsI473
NsI1498
NsI475
NsI476
NsI1530
NsI1503
NsI992
NsI993
NsI482
NsI1448
NsI996
NsI1513
NsI1516
NsI1273
NsI496
NsI497
NsI1619
NsI501
NsI1016
NsI505
NsI506
NsI510
Ns.