(dp0
I1537
NsI515
NsI516
NsI1029
NsI6
(S'beauty'
p1
S'seasons'
p2
tp3
sI7
(S'salvation'
p4
S'faith'
p5
tp6
sI520
NsI521
NsI10
(S'death'
p7
S'time'
p8
tp9
sI12
(g2
g1
tp10
sI525
NsI14
(S'family'
p11
S'love'
p12
tp13
sI1041
NsI505
NsI394
NsI1123
NsI1559
NsI1560
NsI1028
NsI1563
NsI540
NsI5
(S'peace'
p14
g5
tp15
sI33
(S'loss'
p16
S'memory'
p17
tp18
sI35
(g16
g7
tp19
sI36
(S'happiness'
p20
S'winter'
p21
tp22
sI38
(g11
S'marriage'
p23
tp24
sI1575
NsI1576
NsI1579
NsI1583
NsI561
NsI50
(S'mystery'
p25
g7
tp26
sI51
(g14
g7
tp27
sI1588
NsI566
NsI1079
NsI1593
NsI570
NsI411
NsI1598
NsI1088
NsI581
NsI582
NsI1608
NsI1097
NsI587
NsI923
NsI77
(S'freedom'
p28
S'frustration'
p29
tp30
sI78
(g4
S'sadness'
p31
tp32
sI79
NsI592
NsI1106
NsI595
NsI819
NsI1038
NsI1503
NsI1112
NsI602
NsI93
NsI96
NsI784
NsI1122
NsI611
NsI1124
NsI1553
NsI379
NsI617
NsI103
NsI1644
NsI445
NsI624
NsI1137
NsI403
NsI1653
NsI1142
NsI1143
NsI120
NsI1145
NsI1146
NsI635
NsI703
NsI638
NsI127
NsI128
NsI130
NsI645
NsI1158
NsI108
NsI1163
NsI1677
NsI143
NsI144
NsI1681
NsI1170
NsI1171
NsI149
NsI772
NsI151
NsI1177
NsI1691
NsI669
NsI1300
NsI1698
NsI283
NsI164
NsI1701
NsI881
NsI682
NsI1735
NsI1196
NsI1710
NsI175
NsI176
NsI1713
NsI691
NsI1716
NsI182
NsI1207
NsI185
NsI187
NsI1212
NsI701
NsI702
NsI1215
NsI1729
NsI1732
NsI710
NsI199
NsI712
NsI1225
NsI714
NsI715
NsI1541
NsI205
NsI467
NsI1743
NsI632
NsI725
NsI727
NsI728
NsI1753
NsI219
NsI1245
NsI1759
NsI737
NsI227
NsI550
NsI742
NsI721
NsI1769
NsI1771
NsI1773
NsI755
NsI244
NsI245
NsI247
NsI249
NsI762
NsI639
NsI766
NsI768
NsI257
NsI1282
NsI1284
NsI385
NsI778
NsI1239
NsI269
NsI1294
NsI783
NsI1296
NsI1752
NsI1298
NsI1299
NsI708
NsI473
NsI1307
NsI796
NsI1310
NsI799
NsI290
NsI1243
NsI805
NsI294
NsI1152
NsI1326
NsI743
NsI1328
NsI817
NsI1331
NsI820
NsI822
NsI1161
NsI314
NsI735
NsI828
NsI1341
NsI1343
NsI1344
NsI833
NsI435
NsI323
NsI1545
NsI1352
NsI841
NsI1591
NsI287
NsI482
NsI1360
NsI338
NsI340
NsI853
NsI642
NsI344
NsI859
NsI352
NsI1168
NsI354
NsI315
NsI1382
NsI359
NsI361
NsI1387
NsI365
NsI688
NsI694
NsI368
NsI1393
NsI370
NsI883
NsI1666
NsI404
NsI891
NsI382
NsI432
NsI831
NsI1412
NsI1414
NsI393
NsI906
NsI907
NsI908
NsI237
NsI401
NsI1427
NsI916
NsI919
NsI409
NsI410
NsI1435
NsI1434
NsI415
NsI1443
NsI1445
NsI1446
NsI497
NsI936
NsI942
NsI944
NsI1458
NsI947
NsI436
NsI1461
NsI1462
NsI1203
NsI1549
NsI1469
NsI501
NsI448
NsI331
NsI455
NsI1482
NsI1483
NsI973
NsI970
NsI1491
NsI1494
NsI471
NsI984
NsI676
NsI1498
NsI475
NsI476
NsI506
NsI1423
NsI992
NsI993
NsI994
NsI996
NsI1513
NsI1516
NsI1273
NsI496
NsI1448
NsI1619
NsI1013
NsI1016
NsI1529
NsI1530
NsI510
Ns.