(dp0
I1537
NsI515
NsI516
NsI1029
NsI6
(S'beauty'
p1
S'seasons'
p2
tp3
sI7
(S'salvation'
p4
S'faith'
p5
tp6
sI520
NsI521
NsI10
(S'death'
p7
S'time'
p8
tp9
sI12
(g2
g1
tp10
sI525
NsI14
(S'family'
p11
S'love'
p12
tp13
sI1041
NsI1559
NsI1560
NsI1028
NsI1563
NsI540
NsI5
(S'peace'
p14
g5
tp15
sI33
(S'loss'
p16
S'memory'
p17
tp18
sI35
(g16
g7
tp19
sI36
(S'happiness'
p20
S'winter'
p21
tp22
sI38
(g11
S'marriage'
p23
tp24
sI1575
NsI1576
NsI1331
NsI1579
NsI1583
NsI561
NsI50
(S'mystery'
p25
g7
tp26
sI51
(g14
g7
tp27
sI1588
NsI566
NsI1079
NsI1593
NsI570
NsI1598
NsI1088
NsI581
NsI582
NsI1608
NsI1097
NsI587
NsI77
(S'freedom'
p28
S'frustration'
p29
tp30
sI78
(g4
S'sadness'
p31
tp32
sI79
(S'salvation'
p33
S'faith'
p34
tp35
sI592
NsI1106
NsI595
NsI1038
NsI1112
NsI602
NsI1435
NsI93
(S'wonder'
p36
S'time'
p37
tp38
sI96
(S'death'
p39
S'life'
p40
tp41
sI1296
NsI1122
NsI611
NsI1124
NsI1553
NsI617
NsI103
(g33
S'sleep'
p42
tp43
sI1644
NsI1469
NsI624
NsI1137
NsI1653
NsI1142
NsI1143
NsI120
(S'beauty'
p44
g39
tp45
sI1145
NsI1146
NsI635
NsI638
NsI127
(S'suffering'
p46
S'children'
p47
tp48
sI128
(g36
S'nature'
p49
tp50
sI130
(g36
S'autumn'
p51
tp52
sI1387
NsI645
NsI1158
NsI108
(S'sickness'
p53
g40
tp54
sI1163
NsI1677
NsI143
(S'birds'
p55
g36
tp56
sI144
(g39
S'love'
p57
tp58
sI1681
NsI1170
NsI1171
NsI149
(S'loss'
p59
g39
tp60
sI151
(S'smallness'
p61
S'sadness'
p62
tp63
sI1177
NsI1691
NsI669
NsI994
NsI1698
NsI1307
NsI164
(S'mother'
p64
g55
tp65
sI1701
NsI1284
NsI1393
NsI682
NsI199
(S'woman'
p66
g46
tp67
sI1196
NsI1710
NsI175
(g46
g59
tp68
sI176
(S'flowers'
p69
g36
tp70
sI1713
NsI691
NsI1716
NsI182
(g39
S'connection'
p71
tp72
sI1207
NsI891
NsI185
(S'science'
p73
g34
tp74
sI187
(g39
g59
tp75
sI1212
NsI701
NsI702
NsI703
NsI1729
NsI1215
NsI1732
NsI710
NsI1735
NsI712
NsI1225
NsI714
NsI715
NsI1541
NsI205
(S'friendship'
p76
g59
tp77
sI1743
NsI632
NsI725
NsI727
NsI728
NsI1753
NsI331
NsI219
(g44
g49
tp78
sI1245
NsI1759
NsI737
NsI227
(S'family'
p79
g47
tp80
sI550
NsI742
NsI721
NsI1769
NsI1771
NsI1773
NsI1491
NsI1529
NsI755
NsI244
(g46
S'work'
p81
tp82
sI245
(g59
g42
tp83
sI247
(S'grace'
p84
g49
tp85
sI249
(S'happiness'
p86
g71
tp87
sI762
NsI639
NsI766
NsI768
NsI257
(g36
g59
tp88
sI1282
NsI772
NsI778
NsI1239
NsI269
(g46
g40
tp89
sI1294
NsI783
NsI784
NsI1752
NsI1298
NsI1299
NsI1300
NsI283
(g44
S'disconnection'
p90
tp91
sI796
NsI947
NsI1310
NsI799
NsI936
NsI290
(g90
g49
tp92
sI1243
NsI805
NsI294
(S'fear'
p93
g44
tp94
sI1152
NsI1326
NsI1328
NsI817
NsI819
NsI820
NsI822
NsI1161
NsI314
(g49
g39
tp95
sI735
NsI828
NsI1341
NsI1343
NsI1344
NsI833
NsI323
NsI1545
NsI1352
NsI841
NsI1591
NsI1443
NsI1360
NsI338
NsI676
NsI340
NsI853
NsI642
NsI344
NsI859
NsI1423
NsI352
NsI1168
NsI354
NsI315
(g36
S'weather'
p96
tp97
sI708
NsI1382
NsI359
NsI361
NsI743
NsI1427
NsI365
NsI694
NsI368
NsI881
NsI370
NsI883
NsI1666
NsI916
NsI379
NsI382
NsI432
NsI385
NsI1412
NsI831
NsI906
NsI393
NsI394
NsI907
NsI908
NsI237
(g33
g34
tp98
sI401
NsI970
NsI403
NsI404
NsI919
NsI409
NsI410
NsI411
NsI1434
NsI415
NsI923
NsI1445
NsI1446
NsI688
NsI942
NsI287
(g39
g73
tp99
sI1458
NsI435
NsI436
NsI1461
NsI1462
NsI1203
NsI1549
NsI445
NsI1013
NsI448
NsI1123
NsI455
NsI1482
NsI1483
NsI973
NsI944
NsI467
NsI1494
NsI471
NsI984
NsI473
NsI1498
NsI475
NsI476
NsI1530
NsI1503
NsI992
NsI993
NsI482
NsI1448
NsI996
NsI1414
NsI1513
NsI1516
NsI1273
NsI496
NsI497
NsI1619
NsI501
NsI1016
NsI505
NsI506
NsI510
Ns.