(dp0
I1537
NsI515
(S'salvation'
p1
S'wonder'
p2
tp3
sI516
(S'beauty'
p4
S'disconnection'
p5
tp6
sI1029
NsI6
(S'beauty'
p7
S'seasons'
p8
tp9
sI7
(S'salvation'
p10
S'faith'
p11
tp12
sI520
(S'nature'
p13
S'connection'
p14
tp15
sI521
(S'love'
p16
S'death'
p17
tp18
sI10
(S'death'
p19
S'time'
p20
tp21
sI12
(g8
g7
tp22
sI525
(S'trees'
p23
g2
tp24
sI14
(S'family'
p25
S'love'
p26
tp27
sI1041
NsI1123
NsI1559
NsI1560
NsI1028
NsI1563
NsI540
(S'smallness'
p28
S'frustration'
p29
tp30
sI5
(S'peace'
p31
g11
tp32
sI33
(S'loss'
p33
S'memory'
p34
tp35
sI35
(g33
g19
tp36
sI36
(S'happiness'
p37
S'winter'
p38
tp39
sI38
(g25
S'marriage'
p40
tp41
sI1575
NsI1576
NsI1331
NsI1579
NsI1583
NsI561
(S'suffering'
p42
g2
tp43
sI50
(S'mystery'
p44
g19
tp45
sI51
(g31
g19
tp46
sI1588
NsI566
(g17
g14
tp47
sI1079
NsI1593
NsI570
(g5
g16
tp48
sI1598
NsI1088
NsI581
(S'wonder'
p49
S'frustration'
p50
tp51
sI582
(S'art'
p52
S'suffering'
p53
tp54
sI1608
NsI1097
NsI587
(S'loss'
p55
S'love'
p56
tp57
sI77
(S'freedom'
p58
S'frustration'
p59
tp60
sI78
(g10
S'sadness'
p61
tp62
sI79
(S'salvation'
p63
S'faith'
p64
tp65
sI592
(S'death'
p66
S'seasons'
p67
tp68
sI1106
NsI595
(S'beauty'
p69
S'autumn'
p70
tp71
sI1038
NsI1503
NsI1112
NsI602
(g69
S'nature'
p72
tp73
sI1435
NsI93
(S'wonder'
p74
S'time'
p75
tp76
sI96
(S'death'
p77
S'life'
p78
tp79
sI1296
NsI1122
NsI611
(g56
g66
tp80
sI1124
NsI1553
NsI617
(S'determination'
p81
S'sickness'
p82
tp83
sI103
(g63
S'sleep'
p84
tp85
sI1644
NsI1469
NsI624
(S'time'
p86
S'connection'
p87
tp88
sI1137
NsI1653
NsI1142
NsI1143
NsI120
(S'beauty'
p89
g77
tp90
sI1145
NsI1146
NsI635
NsI638
NsI127
(S'suffering'
p91
S'children'
p92
tp93
sI128
(g74
S'nature'
p94
tp95
sI448
(S'art'
p96
g2
tp97
sI130
(g74
S'autumn'
p98
tp99
sI1387
NsI645
NsI1158
NsI108
(S'sickness'
p100
g78
tp101
sI1163
NsI1677
NsI143
(S'birds'
p102
g74
tp103
sI144
(g77
S'love'
p104
tp105
sI1681
NsI1170
NsI1171
NsI149
(S'loss'
p106
g77
tp107
sI151
(S'smallness'
p108
S'sadness'
p109
tp110
sI1482
NsI1177
NsI1691
NsI669
NsI994
NsI1698
NsI1307
NsI164
(S'mother'
p111
g102
tp112
sI1701
NsI1284
NsI1393
NsI682
NsI199
(S'woman'
p113
g91
tp114
sI1196
NsI1710
NsI175
(g91
g106
tp115
sI176
(S'flowers'
p116
g74
tp117
sI1713
NsI691
NsI1716
NsI182
(g77
S'connection'
p118
tp119
sI1207
NsI891
NsI185
(S'science'
p120
g64
tp121
sI187
(g77
g106
tp122
sI1212
NsI701
NsI702
NsI703
NsI1729
NsI1215
NsI1732
NsI710
NsI1735
NsI712
NsI1225
NsI714
NsI715
NsI1541
NsI205
(S'friendship'
p123
g106
tp124
sI1743
NsI632
(S'imagination'
p125
g49
tp126
sI725
NsI727
NsI728
NsI1753
NsI219
(g89
g94
tp127
sI1245
NsI1759
NsI737
NsI227
(S'family'
p128
g92
tp129
sI550
(S'determination'
p130
S'faith'
p131
tp132
sI742
NsI721
NsI1769
NsI1771
NsI1773
NsI1491
NsI1529
NsI755
NsI244
(g91
S'work'
p133
tp134
sI245
(g106
g84
tp135
sI247
(S'grace'
p136
g94
tp137
sI249
(S'happiness'
p138
g118
tp139
sI762
NsI639
NsI766
NsI768
NsI257
(g74
g106
tp140
sI1282
NsI772
NsI778
NsI1239
NsI269
(g91
g78
tp141
sI1294
NsI783
NsI784
NsI1752
NsI1298
NsI1299
NsI1300
NsI283
(g89
S'disconnection'
p142
tp143
sI796
NsI947
NsI1310
NsI287
(g77
g120
tp144
sI936
NsI290
(g142
g94
tp145
sI1243
NsI805
NsI294
(S'fear'
p146
g89
tp147
sI1152
NsI1326
NsI1328
NsI817
NsI819
NsI820
NsI822
NsI1161
NsI314
(g94
g77
tp148
sI735
NsI828
NsI1341
NsI1343
NsI1344
NsI833
NsI323
(S'happiness'
p149
S'surprise'
p150
tp151
sI1545
NsI1352
NsI841
NsI1591
NsI1443
NsI1360
NsI338
(g17
S'loss'
p152
tp153
sI676
NsI340
(g149
S'hesitation'
p154
tp155
sI853
NsI642
NsI344
(g17
g152
tp156
sI859
NsI352
(g2
g13
tp157
sI1168
NsI354
(g4
g152
tp158
sI315
(g74
S'weather'
p159
tp160
sI708
NsI1382
NsI359
(S'grace'
p161
g130
tp162
sI361
(g130
g28
tp163
sI743
NsI1427
NsI365
(g1
g131
tp164
sI694
NsI368
(g16
g42
tp165
sI881
NsI370
(g1
g14
tp166
sI883
NsI1666
NsI916
NsI379
(g152
g149
tp167
sI382
(g17
S'life'
p168
tp169
sI385
(g1
g42
tp170
sI1412
NsI831
NsI906
NsI393
(g161
g2
tp171
sI394
(g16
g42
tp172
sI907
NsI908
NsI237
(g63
g64
tp173
sI401
(S'scorn'
p174
g1
tp175
sI403
(S'seasons'
p176
S'time'
p177
tp178
sI404
(S'flowers'
p179
g4
tp180
sI919
NsI409
(g17
g1
tp181
sI410
(g42
S'madness'
p182
tp183
sI411
(g17
g176
tp184
sI1434
NsI415
(g152
S'fear'
p185
tp186
sI923
NsI1445
NsI1446
NsI688
NsI942
NsI432
(g1
g17
tp187
sI1458
NsI435
(g182
g29
tp188
sI436
(g2
S'weather'
p189
tp190
sI1461
NsI1462
NsI1203
NsI1549
NsI445
(g17
g152
tp191
sI1013
NsI799
NsI331
(g179
g4
tp192
sI455
(g1
g149
tp193
sI970
NsI1483
NsI973
NsI944
NsI467
(S'children'
p194
S'sadness'
p195
tp196
sI1494
NsI471
(g177
g13
tp197
sI984
NsI473
(g1
g149
tp198
sI1498
NsI475
(g5
g168
tp199
sI476
(g28
g131
tp200
sI1530
NsI1423
NsI992
NsI993
NsI482
(g152
g16
tp201
sI1448
NsI996
NsI1414
NsI1513
NsI1516
NsI1273
NsI496
(g5
g4
tp202
sI497
(g131
g42
tp203
sI1619
NsI501
(g131
g1
tp204
sI1016
NsI505
(g96
g2
tp205
sI506
(g161
g2
tp206
sI510
(g17
g185
tp207
s.